target datalayout = "e-m:e-p270:32:32-p271:32:32-p272:64:64-i64:64-i128:128-f80:128-n8:16:32:64-S128"
target triple = "x86_64-pc-linux-gnu"

%struct.hf_register_info = type { ptr, %struct._header_field_info }
%struct._header_field_info = type { ptr, ptr, i32, i32, ptr, i64, ptr, i32, i32, i32, i32, ptr }

@ett_gsm_a_poly_pnt = internal global i32 0, align 4
@ett_gsm_common_elem = hidden global [19 x i32] zeroinitializer, align 16
@ett_gsm_a_plmn = internal global i32 0, align 4
@proto_register_gsm_a_common.ett = internal global [21 x ptr] zeroinitializer, align 16
@.str.496 = private unnamed_addr constant [6 x i8] c"gsm_a\00", align 1
@.str.516 = private unnamed_addr constant [17 x i8] c"GSM A-I/F COMMON\00", align 1
@.str.517 = private unnamed_addr constant [11 x i8] c"GSM COMMON\00", align 1
@proto_a_common = internal global i32 0, align 4
@gsm_a_tap = hidden global i32 0, align 4
@proto_register_gsm_a_common.hf_3gpp = internal global [1 x %struct.hf_register_info] [%struct.hf_register_info { ptr @hf_3gpp_tmsi, %struct._header_field_info { ptr @.str.518, ptr @.str.519, i32 7, i32 4, ptr null, i64 0, ptr @.str.520, i32 -1, i32 0, i32 0, i32 -1, ptr null } }], align 16
@.str.521 = private unnamed_addr constant [12 x i8] c"3GPP COMMON\00", align 1
@.str.522 = private unnamed_addr constant [5 x i8] c"3gpp\00", align 1
@proto_3gpp = internal global i32 0, align 4

; Function Attrs: null_pointer_is_valid sspstrong uwtable
define hidden void @proto_register_gsm_a_common() #1 {
  %1 = alloca i32, align 4
  %2 = alloca i32, align 4
  %3 = alloca ptr, align 8
  call void @llvm.lifetime.start.p0(i64 4, ptr %1) #9
  call void @llvm.lifetime.start.p0(i64 4, ptr %2) #9
  call void @llvm.lifetime.start.p0(i64 8, ptr %3) #9
  store i32 2, ptr %2, align 4
  store ptr @ett_gsm_a_plmn, ptr @proto_register_gsm_a_common.ett, align 16
  store ptr @ett_gsm_a_poly_pnt, ptr getelementptr ([21 x ptr], ptr @proto_register_gsm_a_common.ett, i64 0, i64 1), align 8
  store i32 0, ptr %1, align 4
  br label %4

4:                                                ; preds = %15, %0
  %5 = load i32, ptr %1, align 4
  %6 = zext i32 %5 to i64
  %7 = icmp ult i64 %6, 19
  br i1 %7, label %8, label %20

8:                                                ; preds = %4
  %9 = load i32, ptr %1, align 4
  %10 = zext i32 %9 to i64
  %11 = getelementptr [19 x i32], ptr @ett_gsm_common_elem, i64 0, i64 %10
  %12 = load i32, ptr %2, align 4
  %13 = zext i32 %12 to i64
  %14 = getelementptr [21 x ptr], ptr @proto_register_gsm_a_common.ett, i64 0, i64 %13
  store ptr %11, ptr %14, align 8
  br label %15

15:                                               ; preds = %8
  %16 = load i32, ptr %1, align 4
  %17 = add i32 %16, 1
  store i32 %17, ptr %1, align 4
  %18 = load i32, ptr %2, align 4
  %19 = add i32 %18, 1
  store i32 %19, ptr %2, align 4
  br label %4, !llvm.loop !11

20:                                               ; preds = %4
  %21 = call i32 @proto_register_protocol(ptr noundef @.str.516, ptr noundef @.str.517, ptr noundef @.str.496)
  store i32 %21, ptr @proto_a_common, align 4
  %22 = load i32, ptr @proto_a_common, align 4
  call void @proto_register_field_array(i32 noundef %22, ptr noundef @proto_register_gsm_a_common.hf, i32 noundef 200)
  call void @proto_register_subtree_array(ptr noundef @proto_register_gsm_a_common.ett, i32 noundef 21)
  %23 = load i32, ptr @proto_a_common, align 4
  %24 = call ptr @expert_register_protocol(i32 noundef %23)
  store ptr %24, ptr %3, align 8
  %25 = load ptr, ptr %3, align 8
  call void @expert_register_field_array(ptr noundef %25, ptr noundef @proto_register_gsm_a_common.ei, i32 noundef 7)
  %26 = call i32 @register_tap(ptr noundef @.str.496)
  store i32 %26, ptr @gsm_a_tap, align 4
  call void @register_stat_tap_table_ui(ptr noundef @proto_register_gsm_a_common.gsm_a_bssmap_stat_table)
  call void @register_stat_tap_table_ui(ptr noundef @proto_register_gsm_a_common.gsm_a_dtap_mm_stat_table)
  call void @register_stat_tap_table_ui(ptr noundef @proto_register_gsm_a_common.gsm_a_dtap_rr_stat_table)
  call void @register_stat_tap_table_ui(ptr noundef @proto_register_gsm_a_common.gsm_a_dtap_cc_stat_table)
  call void @register_stat_tap_table_ui(ptr noundef @proto_register_gsm_a_common.gsm_a_dtap_gmm_stat_table)
  call void @register_stat_tap_table_ui(ptr noundef @proto_register_gsm_a_common.gsm_a_dtap_sms_stat_table)
  call void @register_stat_tap_table_ui(ptr noundef @proto_register_gsm_a_common.gsm_a_dtap_sm_stat_table)
  call void @register_stat_tap_table_ui(ptr noundef @proto_register_gsm_a_common.gsm_a_dtap_ss_stat_table)
  call void @register_stat_tap_table_ui(ptr noundef @proto_register_gsm_a_common.gsm_a_dtap_tp_stat_table)
  call void @register_stat_tap_table_ui(ptr noundef @proto_register_gsm_a_common.gsm_a_sacch_rr_stat_table)
  %27 = call i32 @proto_register_protocol(ptr noundef @.str.521, ptr noundef @.str.521, ptr noundef @.str.522)
  store i32 %27, ptr @proto_3gpp, align 4
  %28 = load i32, ptr @proto_3gpp, align 4
  call void @proto_register_field_array(i32 noundef %28, ptr noundef @proto_register_gsm_a_common.hf_3gpp, i32 noundef 1)
  call void @llvm.lifetime.end.p0(i64 8, ptr %3) #9
  call void @llvm.lifetime.end.p0(i64 4, ptr %2) #9
  call void @llvm.lifetime.end.p0(i64 4, ptr %1) #9
  ret void
}