; Function Attrs: null_pointer_is_valid sspstrong uwtable
define hidden void @proto_register_gsm_a_common() local_unnamed_addr #1 {
  store ptr @ett_gsm_a_plmn, ptr @proto_register_gsm_a_common.ett, align 16
  store ptr @ett_gsm_a_poly_pnt, ptr getelementptr inbounds nuw (i8, ptr @proto_register_gsm_a_common.ett, i64 8), align 8
  br label %1

1:                                                ; preds = %0, %1
  %indvars.iv9 = phi i64 [ 2, %0 ], [ %indvars.iv.next10, %1 ]
  %indvars.iv = phi i64 [ 0, %0 ], [ %indvars.iv.next, %1 ]
  %2 = getelementptr [19 x i32], ptr @ett_gsm_common_elem, i64 0, i64 %indvars.iv
  %3 = getelementptr [21 x ptr], ptr @proto_register_gsm_a_common.ett, i64 0, i64 %indvars.iv9
  store ptr %2, ptr %3, align 8
  %indvars.iv.next = add nuw nsw i64 %indvars.iv, 1
  %indvars.iv.next10 = add nuw nsw i64 %indvars.iv9, 1
  %exitcond.not = icmp eq i64 %indvars.iv.next, 19
  br i1 %exitcond.not, label %4, label %1, !llvm.loop !9

4:                                                ; preds = %1
  %5 = tail call i32 @proto_register_protocol(ptr noundef nonnull @.str.516, ptr noundef nonnull @.str.517, ptr noundef nonnull @.str.496)
  store i32 %5, ptr @proto_a_common, align 4
  tail call void @proto_register_field_array(i32 noundef %5, ptr noundef nonnull @proto_register_gsm_a_common.hf, i32 noundef 200)
  tail call void @proto_register_subtree_array(ptr noundef nonnull @proto_register_gsm_a_common.ett, i32 noundef 21)
  %6 = load i32, ptr @proto_a_common, align 4
  %7 = tail call ptr @expert_register_protocol(i32 noundef %6)
  tail call void @expert_register_field_array(ptr noundef %7, ptr noundef nonnull @proto_register_gsm_a_common.ei, i32 noundef 7)
  %8 = tail call i32 @register_tap(ptr noundef nonnull @.str.496)
  store i32 %8, ptr @gsm_a_tap, align 4
  tail call void @register_stat_tap_table_ui(ptr noundef nonnull @proto_register_gsm_a_common.gsm_a_bssmap_stat_table)
  tail call void @register_stat_tap_table_ui(ptr noundef nonnull @proto_register_gsm_a_common.gsm_a_dtap_mm_stat_table)
  tail call void @register_stat_tap_table_ui(ptr noundef nonnull @proto_register_gsm_a_common.gsm_a_dtap_rr_stat_table)
  tail call void @register_stat_tap_table_ui(ptr noundef nonnull @proto_register_gsm_a_common.gsm_a_dtap_cc_stat_table)
  tail call void @register_stat_tap_table_ui(ptr noundef nonnull @proto_register_gsm_a_common.gsm_a_dtap_gmm_stat_table)
  tail call void @register_stat_tap_table_ui(ptr noundef nonnull @proto_register_gsm_a_common.gsm_a_dtap_sms_stat_table)
  tail call void @register_stat_tap_table_ui(ptr noundef nonnull @proto_register_gsm_a_common.gsm_a_dtap_sm_stat_table)
  tail call void @register_stat_tap_table_ui(ptr noundef nonnull @proto_register_gsm_a_common.gsm_a_dtap_ss_stat_table)
  tail call void @register_stat_tap_table_ui(ptr noundef nonnull @proto_register_gsm_a_common.gsm_a_dtap_tp_stat_table)
  tail call void @register_stat_tap_table_ui(ptr noundef nonnull @proto_register_gsm_a_common.gsm_a_sacch_rr_stat_table)
  %9 = tail call i32 @proto_register_protocol(ptr noundef nonnull @.str.521, ptr noundef nonnull @.str.521, ptr noundef nonnull @.str.522)
  tail call void @proto_register_field_array(i32 noundef %9, ptr noundef nonnull @proto_register_gsm_a_common.hf_3gpp, i32 noundef 1)
  ret void
}